target datalayout = "e-m:e-p270:32:32-p271:32:32-p272:64:64-i64:64-i128:128-f80:128-n8:16:32:64-S128"
target triple = "x86_64-pc-linux-gnu"

@bio_err = external global ptr, align 8
@.str.152 = private unnamed_addr constant [2 x i8] c"r\00", align 1
@.str.163 = private unnamed_addr constant [39 x i8] c"Error during serial number generation.\00", align 1
@.str.164 = private unnamed_addr constant [69 x i8] c"Warning: could not open file %s for reading, using serial number: 1\0A\00", align 1
@.str.165 = private unnamed_addr constant [31 x i8] c"unable to load number from %s\0A\00", align 1
@.str.166 = private unnamed_addr constant [2 x i8] c"w\00", align 1
@.str.167 = private unnamed_addr constant [2 x i8] c"\0A\00", align 1
@.str.168 = private unnamed_addr constant [36 x i8] c"could not save serial number to %s\0A\00", align 1

; Function Attrs: nounwind uwtable
define internal i32 @save_ts_serial(ptr noundef %0, ptr noundef %1) #0 {
  %3 = alloca ptr, align 8
  %4 = alloca ptr, align 8
  %5 = alloca i32, align 4
  %6 = alloca ptr, align 8
  store ptr %0, ptr %3, align 8, !tbaa !13
  store ptr %1, ptr %4, align 8, !tbaa !40
  call void @llvm.lifetime.start.p0(i64 4, ptr %5) #4
  store i32 0, ptr %5, align 4, !tbaa !4
  call void @llvm.lifetime.start.p0(i64 8, ptr %6) #4
  store ptr null, ptr %6, align 8, !tbaa !19
  %7 = load ptr, ptr %3, align 8, !tbaa !13
  %8 = call ptr @BIO_new_file(ptr noundef %7, ptr noundef @.str.166)
  store ptr %8, ptr %6, align 8, !tbaa !19
  %9 = icmp eq ptr %8, null
  br i1 %9, label %10, label %11

10:                                               ; preds = %2
  br label %23

11:                                               ; preds = %2
  %12 = load ptr, ptr %6, align 8, !tbaa !19
  %13 = load ptr, ptr %4, align 8, !tbaa !40
  %14 = call i32 @i2a_ASN1_INTEGER(ptr noundef %12, ptr noundef %13)
  %15 = icmp sle i32 %14, 0
  br i1 %15, label %16, label %17

16:                                               ; preds = %11
  br label %23

17:                                               ; preds = %11
  %18 = load ptr, ptr %6, align 8, !tbaa !19
  %19 = call i32 @BIO_puts(ptr noundef %18, ptr noundef @.str.167)
  %20 = icmp sle i32 %19, 0
  br i1 %20, label %21, label %22

21:                                               ; preds = %17
  br label %23

22:                                               ; preds = %17
  store i32 1, ptr %5, align 4, !tbaa !4
  br label %23

23:                                               ; preds = %22, %21, %16, %10
  %24 = load i32, ptr %5, align 4, !tbaa !4
  %25 = icmp ne i32 %24, 0
  br i1 %25, label %30, label %26

26:                                               ; preds = %23
  %27 = load ptr, ptr @bio_err, align 8, !tbaa !19
  %28 = load ptr, ptr %3, align 8, !tbaa !13
  %29 = call i32 (ptr, ptr, ...) @BIO_printf(ptr noundef %27, ptr noundef @.str.168, ptr noundef %28)
  br label %30

30:                                               ; preds = %26, %23
  %31 = load ptr, ptr %6, align 8, !tbaa !19
  call void @BIO_free_all(ptr noundef %31)
  %32 = load i32, ptr %5, align 4, !tbaa !4
  call void @llvm.lifetime.end.p0(i64 8, ptr %6) #4
  call void @llvm.lifetime.end.p0(i64 4, ptr %5) #4
  ret i32 %32
}

; Function Attrs: nounwind uwtable
define internal ptr @next_serial(ptr noundef %0) #0 {
  %2 = alloca ptr, align 8
  %3 = alloca ptr, align 8
  %4 = alloca i32, align 4
  %5 = alloca ptr, align 8
  %6 = alloca ptr, align 8
  %7 = alloca ptr, align 8
  %8 = alloca [1024 x i8], align 16
  %9 = alloca i32, align 4
  store ptr %0, ptr %3, align 8, !tbaa !13
  call void @llvm.lifetime.start.p0(i64 4, ptr %4) #4
  store i32 0, ptr %4, align 4, !tbaa !4
  call void @llvm.lifetime.start.p0(i64 8, ptr %5) #4
  store ptr null, ptr %5, align 8, !tbaa !19
  call void @llvm.lifetime.start.p0(i64 8, ptr %6) #4
  store ptr null, ptr %6, align 8, !tbaa !40
  call void @llvm.lifetime.start.p0(i64 8, ptr %7) #4
  store ptr null, ptr %7, align 8, !tbaa !63
  %10 = call ptr @ASN1_INTEGER_new()
  store ptr %10, ptr %6, align 8, !tbaa !40
  %11 = icmp eq ptr %10, null
  br i1 %11, label %12, label %13

12:                                               ; preds = %1
  br label %57

13:                                               ; preds = %1
  %14 = load ptr, ptr %3, align 8, !tbaa !13
  %15 = call ptr @BIO_new_file(ptr noundef %14, ptr noundef @.str.152)
  store ptr %15, ptr %5, align 8, !tbaa !19
  %16 = icmp eq ptr %15, null
  br i1 %16, label %17, label %26

17:                                               ; preds = %13
  call void @ERR_clear_error()
  %18 = load ptr, ptr @bio_err, align 8, !tbaa !19
  %19 = load ptr, ptr %3, align 8, !tbaa !13
  %20 = call i32 (ptr, ptr, ...) @BIO_printf(ptr noundef %18, ptr noundef @.str.164, ptr noundef %19)
  %21 = load ptr, ptr %6, align 8, !tbaa !40
  %22 = call i32 @ASN1_INTEGER_set(ptr noundef %21, i64 noundef 1)
  %23 = icmp ne i32 %22, 0
  br i1 %23, label %25, label %24

24:                                               ; preds = %17
  br label %57

25:                                               ; preds = %17
  br label %56

26:                                               ; preds = %13
  call void @llvm.lifetime.start.p0(i64 1024, ptr %8) #4
  %27 = load ptr, ptr %5, align 8, !tbaa !19
  %28 = load ptr, ptr %6, align 8, !tbaa !40
  %29 = getelementptr inbounds [1024 x i8], ptr %8, i64 0, i64 0
  %30 = call i32 @a2i_ASN1_INTEGER(ptr noundef %27, ptr noundef %28, ptr noundef %29, i32 noundef 1024)
  %31 = icmp ne i32 %30, 0
  br i1 %31, label %36, label %32

32:                                               ; preds = %26
  %33 = load ptr, ptr @bio_err, align 8, !tbaa !19
  %34 = load ptr, ptr %3, align 8, !tbaa !13
  %35 = call i32 (ptr, ptr, ...) @BIO_printf(ptr noundef %33, ptr noundef @.str.165, ptr noundef %34)
  store i32 2, ptr %9, align 4
  br label %53

36:                                               ; preds = %26
  %37 = load ptr, ptr %6, align 8, !tbaa !40
  %38 = call ptr @ASN1_INTEGER_to_BN(ptr noundef %37, ptr noundef null)
  store ptr %38, ptr %7, align 8, !tbaa !63
  %39 = icmp eq ptr %38, null
  br i1 %39, label %40, label %41

40:                                               ; preds = %36
  store i32 2, ptr %9, align 4
  br label %53

41:                                               ; preds = %36
  %42 = load ptr, ptr %6, align 8, !tbaa !40
  call void @ASN1_INTEGER_free(ptr noundef %42)
  store ptr null, ptr %6, align 8, !tbaa !40
  %43 = load ptr, ptr %7, align 8, !tbaa !63
  %44 = call i32 @BN_add_word(ptr noundef %43, i64 noundef 1)
  %45 = icmp ne i32 %44, 0
  br i1 %45, label %47, label %46

46:                                               ; preds = %41
  store i32 2, ptr %9, align 4
  br label %53

47:                                               ; preds = %41
  %48 = load ptr, ptr %7, align 8, !tbaa !63
  %49 = call ptr @BN_to_ASN1_INTEGER(ptr noundef %48, ptr noundef null)
  store ptr %49, ptr %6, align 8, !tbaa !40
  %50 = icmp eq ptr %49, null
  br i1 %50, label %51, label %52

51:                                               ; preds = %47
  store i32 2, ptr %9, align 4
  br label %53

52:                                               ; preds = %47
  store i32 0, ptr %9, align 4
  br label %53

53:                                               ; preds = %51, %46, %40, %32, %52
  call void @llvm.lifetime.end.p0(i64 1024, ptr %8) #4
  %54 = load i32, ptr %9, align 4
  switch i32 %54, label %66 [
    i32 0, label %55
    i32 2, label %57
  ]

55:                                               ; preds = %53
  br label %56

56:                                               ; preds = %55, %25
  store i32 1, ptr %4, align 4, !tbaa !4
  br label %57

57:                                               ; preds = %56, %53, %24, %12
  %58 = load i32, ptr %4, align 4, !tbaa !4
  %59 = icmp ne i32 %58, 0
  br i1 %59, label %62, label %60

60:                                               ; preds = %57
  %61 = load ptr, ptr %6, align 8, !tbaa !40
  call void @ASN1_INTEGER_free(ptr noundef %61)
  store ptr null, ptr %6, align 8, !tbaa !40
  br label %62

62:                                               ; preds = %60, %57
  %63 = load ptr, ptr %5, align 8, !tbaa !19
  call void @BIO_free_all(ptr noundef %63)
  %64 = load ptr, ptr %7, align 8, !tbaa !63
  call void @BN_free(ptr noundef %64)
  %65 = load ptr, ptr %6, align 8, !tbaa !40
  store ptr %65, ptr %2, align 8
  store i32 1, ptr %9, align 4
  br label %66

66:                                               ; preds = %62, %53
  call void @llvm.lifetime.end.p0(i64 8, ptr %7) #4
  call void @llvm.lifetime.end.p0(i64 8, ptr %6) #4
  call void @llvm.lifetime.end.p0(i64 8, ptr %5) #4
  call void @llvm.lifetime.end.p0(i64 4, ptr %4) #4
  %67 = load ptr, ptr %2, align 8
  ret ptr %67
}

; Function Attrs: nounwind uwtable
define internal ptr @serial_cb(ptr noundef %0, ptr noundef %1) #0 {
  %3 = alloca ptr, align 8
  %4 = alloca ptr, align 8
  %5 = alloca ptr, align 8
  %6 = alloca ptr, align 8
  store ptr %0, ptr %3, align 8, !tbaa !60
  store ptr %1, ptr %4, align 8, !tbaa !62
  call void @llvm.lifetime.start.p0(i64 8, ptr %5) #4
  %7 = load ptr, ptr %4, align 8, !tbaa !62
  store ptr %7, ptr %5, align 8, !tbaa !13
  call void @llvm.lifetime.start.p0(i64 8, ptr %6) #4
  %8 = load ptr, ptr %5, align 8, !tbaa !13
  %9 = call ptr @next_serial(ptr noundef %8)
  store ptr %9, ptr %6, align 8, !tbaa !40
  %10 = load ptr, ptr %6, align 8, !tbaa !40
  %11 = icmp eq ptr %10, null
  br i1 %11, label %12, label %17

12:                                               ; preds = %2
  %13 = load ptr, ptr %3, align 8, !tbaa !60
  %14 = call i32 @TS_RESP_CTX_set_status_info(ptr noundef %13, i32 noundef 2, ptr noundef @.str.163)
  %15 = load ptr, ptr %3, align 8, !tbaa !60
  %16 = call i32 @TS_RESP_CTX_add_failure_info(ptr noundef %15, i32 noundef 17)
  br label %21

17:                                               ; preds = %2
  %18 = load ptr, ptr %5, align 8, !tbaa !13
  %19 = load ptr, ptr %6, align 8, !tbaa !40
  %20 = call i32 @save_ts_serial(ptr noundef %18, ptr noundef %19)
  br label %21

21:                                               ; preds = %17, %12
  %22 = load ptr, ptr %6, align 8, !tbaa !40
  call void @llvm.lifetime.end.p0(i64 8, ptr %6) #4
  call void @llvm.lifetime.end.p0(i64 8, ptr %5) #4
  ret ptr %22
}