; Function Attrs: nounwind uwtable
define internal ptr @serial_cb(ptr noundef %0, ptr noundef %1) #0 {
  %3 = alloca [1024 x i8], align 16
  %4 = tail call ptr @ASN1_INTEGER_new() #7
  %5 = icmp eq ptr %4, null
  br i1 %5, label %27, label %6

6:                                                ; preds = %2
  %7 = tail call ptr @BIO_new_file(ptr noundef %1, ptr noundef nonnull @.str.152) #7
  %8 = icmp eq ptr %7, null
  br i1 %8, label %9, label %13

9:                                                ; preds = %6
  tail call void @ERR_clear_error() #7
  %10 = load ptr, ptr @bio_err, align 8, !tbaa !11
  %11 = tail call i32 (ptr, ptr, ...) @BIO_printf(ptr noundef %10, ptr noundef nonnull @.str.164, ptr noundef %1) #7
  %12 = tail call i32 @ASN1_INTEGER_set(ptr noundef nonnull %4, i64 noundef 1) #7
  %.not32.i = icmp eq i32 %12, 0
  br i1 %.not32.i, label %27, label %next_serial.exit

13:                                               ; preds = %6
  call void @llvm.lifetime.start.p0(i64 1024, ptr nonnull %3) #7
  %14 = call i32 @a2i_ASN1_INTEGER(ptr noundef nonnull %7, ptr noundef nonnull %4, ptr noundef nonnull %3, i32 noundef 1024) #7
  %.not.i = icmp eq i32 %14, 0
  br i1 %.not.i, label %15, label %18

15:                                               ; preds = %13
  %16 = load ptr, ptr @bio_err, align 8, !tbaa !11
  %17 = call i32 (ptr, ptr, ...) @BIO_printf(ptr noundef %16, ptr noundef nonnull @.str.165, ptr noundef %1) #7
  br label %.thread.i

18:                                               ; preds = %13
  %19 = call ptr @ASN1_INTEGER_to_BN(ptr noundef nonnull %4, ptr noundef null) #7
  %20 = icmp eq ptr %19, null
  br i1 %20, label %.thread.i, label %21

21:                                               ; preds = %18
  call void @ASN1_INTEGER_free(ptr noundef nonnull %4) #7
  %22 = call i32 @BN_add_word(ptr noundef nonnull %19, i64 noundef 1) #7
  %.not31.i = icmp eq i32 %22, 0
  br i1 %.not31.i, label %.thread.i, label %23

23:                                               ; preds = %21
  %24 = call ptr @BN_to_ASN1_INTEGER(ptr noundef nonnull %19, ptr noundef null) #7
  %25 = icmp eq ptr %24, null
  br i1 %25, label %.thread.i, label %26

.thread.i:                                        ; preds = %23, %21, %18, %15
  %.219.ph.i = phi ptr [ null, %21 ], [ %4, %18 ], [ %4, %15 ], [ null, %23 ]
  %.2.ph.i = phi ptr [ %19, %21 ], [ null, %18 ], [ null, %15 ], [ %19, %23 ]
  call void @llvm.lifetime.end.p0(i64 1024, ptr nonnull %3) #7
  br label %27

26:                                               ; preds = %23
  call void @llvm.lifetime.end.p0(i64 1024, ptr nonnull %3) #7
  br label %next_serial.exit

27:                                               ; preds = %.thread.i, %9, %2
  %.020.ph.i = phi ptr [ %7, %.thread.i ], [ null, %9 ], [ null, %2 ]
  %.017.ph.i = phi ptr [ %.219.ph.i, %.thread.i ], [ %4, %9 ], [ null, %2 ]
  %.016.ph.i = phi ptr [ %.2.ph.i, %.thread.i ], [ null, %9 ], [ null, %2 ]
  call void @ASN1_INTEGER_free(ptr noundef %.017.ph.i) #7
  br label %next_serial.exit

next_serial.exit:                                 ; preds = %9, %26, %27
  %.01649.i = phi ptr [ %.016.ph.i, %27 ], [ %19, %26 ], [ null, %9 ]
  %.02046.i = phi ptr [ %.020.ph.i, %27 ], [ %7, %26 ], [ null, %9 ]
  %.3.i = phi ptr [ null, %27 ], [ %24, %26 ], [ %4, %9 ]
  call void @BIO_free_all(ptr noundef %.02046.i) #7
  call void @BN_free(ptr noundef %.01649.i) #7
  %28 = icmp eq ptr %.3.i, null
  br i1 %28, label %29, label %32

29:                                               ; preds = %next_serial.exit
  %30 = call i32 @TS_RESP_CTX_set_status_info(ptr noundef %0, i32 noundef 2, ptr noundef nonnull @.str.163) #7
  %31 = call i32 @TS_RESP_CTX_add_failure_info(ptr noundef %0, i32 noundef 17) #7
  br label %43

32:                                               ; preds = %next_serial.exit
  %33 = call ptr @BIO_new_file(ptr noundef %1, ptr noundef nonnull @.str.166) #7
  %34 = icmp eq ptr %33, null
  br i1 %34, label %.thread.i8, label %35

35:                                               ; preds = %32
  %36 = call i32 @i2a_ASN1_INTEGER(ptr noundef nonnull %33, ptr noundef nonnull %.3.i) #7
  %37 = icmp slt i32 %36, 1
  br i1 %37, label %.thread.i8, label %38

38:                                               ; preds = %35
  %39 = call i32 @BIO_puts(ptr noundef nonnull %33, ptr noundef nonnull @.str.167) #7
  %40 = icmp slt i32 %39, 1
  br i1 %40, label %.thread.i8, label %save_ts_serial.exit

.thread.i8:                                       ; preds = %38, %35, %32
  %41 = load ptr, ptr @bio_err, align 8, !tbaa !11
  %42 = call i32 (ptr, ptr, ...) @BIO_printf(ptr noundef %41, ptr noundef nonnull @.str.168, ptr noundef %1) #7
  br label %save_ts_serial.exit

save_ts_serial.exit:                              ; preds = %38, %.thread.i8
  call void @BIO_free_all(ptr noundef %33) #7
  br label %43

43:                                               ; preds = %save_ts_serial.exit, %29
  ret ptr %.3.i
}